; Function Attrs: mustprogress nounwind uwtable
define void @_ZN8WasmEdge8Executor8Executor7memFillERNS_7Runtime12StackManagerEjjhj(ptr dead_on_unwind noalias nocapture writable writeonly sret(%"class.cxx20::expected") align 4 %0, ptr noundef nonnull align 8 dereferenceable(408) %1, ptr noundef nonnull align 8 dereferenceable(48) %2, i32 noundef %3, i32 noundef %4, i8 noundef zeroext %5, i32 noundef %6) local_unnamed_addr #4 align 2 personality ptr @__gxx_personality_v0 {
  %8 = alloca %"class.cxx20::expected", align 4
  %9 = invoke noundef ptr @_ZNK8WasmEdge8Executor8Executor15getMemInstByIdxERNS_7Runtime12StackManagerEj(ptr noundef nonnull align 8 dereferenceable(408) %1, ptr noundef nonnull align 8 dereferenceable(48) %2, i32 noundef %3)
          to label %10 unwind label %20

10:                                               ; preds = %7
  %11 = icmp ne ptr %9, null
  tail call void @llvm.assume(i1 %11)
  call void @_ZN8WasmEdge7Runtime8Instance14MemoryInstance9fillBytesEhjj(ptr dead_on_unwind nonnull writable sret(%"class.cxx20::expected") align 4 %8, ptr noundef nonnull align 8 dereferenceable(28) %9, i8 noundef zeroext %5, i32 noundef %4, i32 noundef %6) #23
  %12 = load i8, ptr %8, align 4
  %13 = trunc i8 %12 to i1
  br i1 %13, label %18, label %14

14:                                               ; preds = %10
  %15 = getelementptr inbounds i8, ptr %8, i64 4
  %16 = load i32, ptr %15, align 4, !noalias !113
  %17 = getelementptr inbounds i8, ptr %0, i64 4
  store i32 %16, ptr %17, align 4
  br label %19

18:                                               ; preds = %10
  store i64 0, ptr %0, align 4
  br label %19

19:                                               ; preds = %18, %14
  %.sink = phi i8 [ 1, %18 ], [ 0, %14 ]
  store i8 %.sink, ptr %0, align 4
  ret void

20:                                               ; preds = %7
  %21 = landingpad { ptr, i32 }
          catch ptr null
  %22 = extractvalue { ptr, i32 } %21, 0
  tail call void @__clang_call_terminate(ptr %22) #24
  unreachable
}